; Function Attrs: mustprogress uwtable
define void @_ZN32pxrInternal_v0_24__pxrReserved__17UsdAttributeQueryC2ERKNS_7UsdPrimERKNS_7TfTokenE(ptr noundef nonnull align 8 dereferenceable(120) %0, ptr noundef nonnull align 8 dereferenceable(32) %1, ptr noundef nonnull align 8 dereferenceable(8) %2) unnamed_addr #0 align 2 personality ptr @__gxx_personality_v0 {
  %4 = alloca %"class.pxrInternal_v0_24__pxrReserved__::UsdAttribute", align 8
  call void @_ZNK32pxrInternal_v0_24__pxrReserved__7UsdPrim12GetAttributeERKNS_7TfTokenE(ptr dead_on_unwind nonnull writable sret(%"class.pxrInternal_v0_24__pxrReserved__::UsdAttribute") align 8 %4, ptr noundef nonnull align 8 dereferenceable(32) %1, ptr noundef nonnull align 8 dereferenceable(8) %2)
  invoke void @_ZN32pxrInternal_v0_24__pxrReserved__17UsdAttributeQueryC2ERKNS_12UsdAttributeE(ptr noundef nonnull align 8 dereferenceable(120) %0, ptr noundef nonnull align 8 dereferenceable(32) %4)
          to label %5 unwind label %39

5:                                                ; preds = %3
  %6 = getelementptr inbounds nuw i8, ptr %4, i64 24
  %7 = load ptr, ptr %6, align 8
  %8 = ptrtoint ptr %7 to i64
  %9 = and i64 %8, 7
  %.not.i.i.i.i.i = icmp eq i64 %9, 0
  br i1 %.not.i.i.i.i.i, label %_ZN32pxrInternal_v0_24__pxrReserved__7TfTokenD2Ev.exit.i.i.i, label %10

10:                                               ; preds = %5
  %11 = and i64 %8, -8
  %12 = inttoptr i64 %11 to ptr
  %13 = atomicrmw sub ptr %12, i32 2 release, align 4
  br label %_ZN32pxrInternal_v0_24__pxrReserved__7TfTokenD2Ev.exit.i.i.i

_ZN32pxrInternal_v0_24__pxrReserved__7TfTokenD2Ev.exit.i.i.i: ; preds = %10, %5
  %14 = getelementptr inbounds nuw i8, ptr %4, i64 16
  %15 = load i32, ptr %14, align 8
  %.not.i.i1.i.i.i = icmp eq i32 %15, 0
  br i1 %.not.i.i1.i.i.i, label %_ZN32pxrInternal_v0_24__pxrReserved__7SdfPathD2Ev.exit.i.i.i, label %16

16:                                               ; preds = %_ZN32pxrInternal_v0_24__pxrReserved__7TfTokenD2Ev.exit.i.i.i
  %17 = and i32 %15, 255
  %18 = lshr i32 %15, 8
  %19 = zext nneg i32 %17 to i64
  %20 = getelementptr inbounds [257 x ptr], ptr @_ZN32pxrInternal_v0_24__pxrReserved__8Sdf_PoolINS_15Sdf_PathPrimTagELj24ELj8ELj16384EE13_regionStartsE, i64 0, i64 %19
  %21 = load ptr, ptr %20, align 8
  %22 = mul nuw nsw i32 %18, 24
  %23 = zext nneg i32 %22 to i64
  %24 = getelementptr inbounds i8, ptr %21, i64 %23
  %25 = getelementptr inbounds nuw i8, ptr %24, i64 8
  %26 = atomicrmw sub ptr %25, i32 1 seq_cst, align 4
  %27 = and i32 %26, 2147483647
  %28 = icmp eq i32 %27, 1
  br i1 %28, label %29, label %_ZN32pxrInternal_v0_24__pxrReserved__7SdfPathD2Ev.exit.i.i.i

29:                                               ; preds = %16
  invoke void @_ZNK32pxrInternal_v0_24__pxrReserved__12Sdf_PathNode8_DestroyEv(ptr noundef nonnull align 8 dereferenceable(16) %24)
          to label %_ZN32pxrInternal_v0_24__pxrReserved__7SdfPathD2Ev.exit.i.i.i unwind label %30

30:                                               ; preds = %29
  %31 = landingpad { ptr, i32 }
          catch ptr null
  %32 = extractvalue { ptr, i32 } %31, 0
  call void @__clang_call_terminate(ptr %32) #17
  unreachable

_ZN32pxrInternal_v0_24__pxrReserved__7SdfPathD2Ev.exit.i.i.i: ; preds = %29, %16, %_ZN32pxrInternal_v0_24__pxrReserved__7TfTokenD2Ev.exit.i.i.i
  %33 = getelementptr inbounds nuw i8, ptr %4, i64 8
  %34 = load ptr, ptr %33, align 8
  %.not.i.i.i.i.i.i = icmp eq ptr %34, null
  br i1 %.not.i.i.i.i.i.i, label %_ZN32pxrInternal_v0_24__pxrReserved__12UsdAttributeD2Ev.exit, label %35

35:                                               ; preds = %_ZN32pxrInternal_v0_24__pxrReserved__7SdfPathD2Ev.exit.i.i.i
  %36 = getelementptr inbounds nuw i8, ptr %34, i64 48
  %37 = atomicrmw sub ptr %36, i64 1 release, align 8
  %.not1.i.i.i.i.i.i = icmp eq i64 %37, 1
  br i1 %.not1.i.i.i.i.i.i, label %38, label %_ZN32pxrInternal_v0_24__pxrReserved__12UsdAttributeD2Ev.exit

38:                                               ; preds = %35
  call void @_ZN32pxrInternal_v0_24__pxrReserved__12Usd_PrimDataD1Ev(ptr noundef nonnull align 8 dereferenceable(64) %34) #16
  call void @_ZdlPvm(ptr noundef nonnull %34, i64 noundef 64) #18
  br label %_ZN32pxrInternal_v0_24__pxrReserved__12UsdAttributeD2Ev.exit

_ZN32pxrInternal_v0_24__pxrReserved__12UsdAttributeD2Ev.exit: ; preds = %_ZN32pxrInternal_v0_24__pxrReserved__7SdfPathD2Ev.exit.i.i.i, %35, %38
  ret void

39:                                               ; preds = %3
  %40 = landingpad { ptr, i32 }
          cleanup
  call void @_ZN32pxrInternal_v0_24__pxrReserved__12UsdAttributeD2Ev(ptr noundef nonnull align 8 dereferenceable(32) %4) #16
  resume { ptr, i32 } %40
}